(dp1
S'ILSVRC2015_val_00034000'
p2
(dp3
S'lion'
p4
(dp5
S'num'
p6
I160
sssS'ILSVRC2015_val_00118001'
p7
(dp8
S'elephant'
p9
(dp10
g6
I2262
sssS'ILSVRC2015_val_00124000'
p11
(dp12
S'bicycle'
p13
(dp14
g6
I64
sssS'ILSVRC2015_val_00124001'
p15
(dp16
g13
(dp17
g6
I242
sssS'ILSVRC2015_val_00118000'
p18
(dp19
g9
(dp20
g6
I545
sssS'ILSVRC2015_val_00016013'
p21
(dp22
S'domestic_cat'
p23
(dp24
g6
I326
sssS'ILSVRC2015_val_00016012'
p25
(dp26
g23
(dp27
g6
I212
sssS'ILSVRC2015_val_00016011'
p28
(dp29
g23
(dp30
g6
I493
sssS'ILSVRC2015_val_00016010'
p31
(dp32
g23
(dp33
g6
I665
sssS'ILSVRC2015_val_00100000'
p34
(dp35
S'whale'
p36
(dp37
g6
I297
ssS'watercraft'
p38
(dp39
g6
I360
sssS'ILSVRC2015_val_00100001'
p40
(dp41
g36
(dp42
g6
I234
ssg38
(dp43
g6
I360
sssS'ILSVRC2015_val_00091001'
p44
(dp45
S'dog'
p46
(dp47
g6
I170
sssS'ILSVRC2015_val_00091000'
p48
(dp49
g46
(dp50
g6
I180
sssS'ILSVRC2015_val_00172000'
p51
(dp52
S'rabbit'
p53
(dp54
g6
I450
sssS'ILSVRC2015_val_00124002'
p55
(dp56
g13
(dp57
g6
I74
sssS'ILSVRC2015_val_00059000'
p58
(dp59
g46
(dp60
g6
I125
sssS'ILSVRC2015_val_00044018'
p61
(dp62
g46
(dp63
g6
I64
sssS'ILSVRC2015_val_00044019'
p64
(dp65
g46
(dp66
g6
I72
sssS'ILSVRC2015_val_00044014'
p67
(dp68
g46
(dp69
g6
I139
sssS'ILSVRC2015_val_00044015'
p70
(dp71
g46
(dp72
g6
I95
sssS'ILSVRC2015_val_00044016'
p73
(dp74
g46
(dp75
g6
I461
sssS'ILSVRC2015_val_00044017'
p76
(dp77
g46
(dp78
g6
I23
sssS'ILSVRC2015_val_00044010'
p79
(dp80
g46
(dp81
g6
I416
sssS'ILSVRC2015_val_00044011'
p82
(dp83
g46
(dp84
g6
I389
sssS'ILSVRC2015_val_00044012'
p85
(dp86
g46
(dp87
g6
I185
sssS'ILSVRC2015_val_00044013'
p88
(dp89
g46
(dp90
g6
I142
sssS'ILSVRC2015_val_00040001'
p91
(dp92
S'red_panda'
p93
(dp94
g6
I364
sssS'ILSVRC2015_val_00040000'
p95
(dp96
g93
(dp97
g6
I137
sssS'ILSVRC2015_val_00078000'
p98
(dp99
S'monkey'
p100
(dp101
g6
I149
sssS'ILSVRC2015_val_00078001'
p102
(dp103
g100
(dp104
g6
I169
sssS'ILSVRC2015_val_00152000'
p105
(dp106
S'bird'
p107
(dp108
g6
I660
sssS'ILSVRC2015_val_00028005'
p109
(dp110
g36
(dp111
g6
I520
ssg38
(dp112
g6
I711
sssS'ILSVRC2015_val_00028004'
p113
(dp114
g36
(dp115
g6
I324
ssg38
(dp116
g6
I230
sssS'ILSVRC2015_val_00028001'
p117
(dp118
g36
(dp119
g6
I789
sssS'ILSVRC2015_val_00028000'
p120
(dp121
g38
(dp122
g6
I136
sssS'ILSVRC2015_val_00028003'
p123
(dp124
g36
(dp125
g6
I456
ssg38
(dp126
g6
I114
sssS'ILSVRC2015_val_00028002'
p127
(dp128
g36
(dp129
g6
I427
sssS'ILSVRC2015_val_00006005'
p130
(dp131
g9
(dp132
g6
I128
sssS'ILSVRC2015_val_00006004'
p133
(dp134
g9
(dp135
g6
I60
sssS'ILSVRC2015_val_00006001'
p136
(dp137
g9
(dp138
g6
I240
sssS'ILSVRC2015_val_00006000'
p139
(dp140
g9
(dp141
g6
I120
sssS'ILSVRC2015_val_00006003'
p142
(dp143
g9
(dp144
g6
I80
sssS'ILSVRC2015_val_00006002'
p145
(dp146
g9
(dp147
g6
I70
sssS'ILSVRC2015_val_00089000'
p148
(dp149
S'turtle'
p150
(dp151
g6
I300
sssS'ILSVRC2015_val_00054000'
p152
(dp153
S'train'
p154
(dp155
g6
I280
sssS'ILSVRC2015_val_00007020'
p156
(dp157
S'airplane'
p158
(dp159
g6
I522
sssS'ILSVRC2015_val_00007021'
p160
(dp161
g158
(dp162
g6
I36
sssS'ILSVRC2015_val_00007022'
p163
(dp164
g158
(dp165
g6
I414
sssS'ILSVRC2015_val_00007023'
p166
(dp167
g158
(dp168
g6
I63
sssS'ILSVRC2015_val_00007024'
p169
(dp170
g158
(dp171
g6
I270
sssS'ILSVRC2015_val_00007025'
p172
(dp173
g158
(dp174
g6
I62
sssS'ILSVRC2015_val_00007026'
p175
(dp176
g158
(dp177
g6
I171
sssS'ILSVRC2015_val_00007027'
p178
(dp179
g158
(dp180
g6
I1518
sssS'ILSVRC2015_val_00007028'
p181
(dp182
g158
(dp183
g6
I640
sssS'ILSVRC2015_val_00007029'
p184
(dp185
g158
(dp186
g6
I132
sssS'ILSVRC2015_val_00159002'
p187
(dp188
S'horse'
p189
(dp190
g6
I201
sssS'ILSVRC2015_val_00090000'
p191
(dp192
g46
(dp193
g6
I450
sssS'ILSVRC2015_val_00159001'
p194
(dp195
g189
(dp196
g6
I525
sssS'ILSVRC2015_val_00049000'
p197
(dp198
S'sheep'
p199
(dp200
g6
I522
sssS'ILSVRC2015_val_00072000'
p201
(dp202
g46
(dp203
g6
I195
sssS'ILSVRC2015_val_00072001'
p204
(dp205
g46
(dp206
g6
I323
sssS'ILSVRC2015_val_00141000'
p207
(dp208
S'car'
p209
(dp210
g6
I447
sssS'ILSVRC2015_val_00112000'
p211
(dp212
g209
(dp213
g6
I151
sssS'ILSVRC2015_val_00071000'
p214
(dp215
g107
(dp216
g6
I287
sssS'ILSVRC2015_val_00175000'
p217
(dp218
g46
(dp219
g6
I631
sssS'ILSVRC2015_val_00079000'
p220
(dp221
g46
(dp222
g6
I880
sssS'ILSVRC2015_val_00103001'
p223
(dp224
g158
(dp225
g6
I720
sssS'ILSVRC2015_val_00103000'
p226
(dp227
g158
(dp228
g6
I978
sssS'ILSVRC2015_val_00007012'
p229
(dp230
g158
(dp231
g6
I191
sssS'ILSVRC2015_val_00068000'
p232
(dp233
g46
(dp234
g6
I120
sssS'ILSVRC2015_val_00118010'
p235
(dp236
g9
(dp237
g6
I1676
sssS'ILSVRC2015_val_00158000'
p238
(dp239
g154
(dp240
g6
I370
sssS'ILSVRC2015_val_00004000'
p241
(dp242
g23
(dp243
g6
I180
ssg100
(dp244
g6
I180
sssS'ILSVRC2015_val_00133004'
p245
(dp246
S'antelope'
p247
(dp248
g6
I756
sssS'ILSVRC2015_val_00133005'
p249
(dp250
g247
(dp251
g6
I793
sssS'ILSVRC2015_val_00133002'
p252
(dp253
g247
(dp254
g6
I702
sssS'ILSVRC2015_val_00133003'
p255
(dp256
g247
(dp257
g6
I580
sssS'ILSVRC2015_val_00133000'
p258
(dp259
g247
(dp260
g6
I580
sssS'ILSVRC2015_val_00133001'
p261
(dp262
g247
(dp263
g6
I675
sssS'ILSVRC2015_val_00130000'
p264
(dp265
g107
(dp266
g6
I201
ssS'squirrel'
p267
(dp268
g6
I639
sssS'ILSVRC2015_val_00167000'
p269
(dp270
g23
(dp271
g6
I300
sssS'ILSVRC2015_val_00109000'
p272
(dp273
g23
(dp274
g6
I300
sssS'ILSVRC2015_val_00019001'
p275
(dp276
g247
(dp277
g6
I627
sssS'ILSVRC2015_val_00019000'
p278
(dp279
g247
(dp280
g6
I464
sssS'ILSVRC2015_val_00019003'
p281
(dp282
g247
(dp283
g6
I464
sssS'ILSVRC2015_val_00019002'
p284
(dp285
g247
(dp286
g6
I1392
sssS'ILSVRC2015_val_00121000'
p287
(dp288
g107
(dp289
g6
I59
sssS'ILSVRC2015_val_00110000'
p290
(dp291
S'bus'
p292
(dp293
g6
I1151
sssS'ILSVRC2015_val_00031003'
p294
(dp295
S'snake'
p296
(dp297
g6
I341
sssS'ILSVRC2015_val_00031002'
p298
(dp299
g296
(dp300
g6
I284
sssS'ILSVRC2015_val_00031001'
p301
(dp302
g296
(dp303
g6
I817
sssS'ILSVRC2015_val_00031000'
p304
(dp305
g296
(dp306
g6
I276
sssS'ILSVRC2015_val_00013002'
p307
(dp308
S'lizard'
p309
(dp310
g6
I499
sssS'ILSVRC2015_val_00013001'
p311
(dp312
g309
(dp313
g6
I448
sssS'ILSVRC2015_val_00013000'
p314
(dp315
g309
(dp316
g6
I630
sssS'ILSVRC2015_val_00157000'
p317
(dp318
g150
(dp319
g6
I172
sssS'ILSVRC2015_val_00160000'
p320
(dp321
g267
(dp322
g6
I543
sssS'ILSVRC2015_val_00117000'
p323
(dp324
g154
(dp325
g6
I290
sssS'ILSVRC2015_val_00052000'
p326
(dp327
g38
(dp328
g6
I1652
sssS'ILSVRC2015_val_00061000'
p329
(dp330
g107
(dp331
g6
I810
sssS'ILSVRC2015_val_00150002'
p332
(dp333
g46
(dp334
g6
I707
ssg267
(dp335
g6
I434
sssS'ILSVRC2015_val_00036002'
p336
(dp337
g36
(dp338
g6
I108
ssg38
(dp339
g6
I108
sssS'ILSVRC2015_val_00036003'
p340
(dp341
g36
(dp342
g6
I60
sssS'ILSVRC2015_val_00036000'
p343
(dp344
g36
(dp345
g6
I90
sssS'ILSVRC2015_val_00036001'
p346
(dp347
g36
(dp348
g6
I130
sssS'ILSVRC2015_val_00036006'
p349
(dp350
g36
(dp351
g6
I54
sssS'ILSVRC2015_val_00036007'
p352
(dp353
g36
(dp354
g6
I63
sssS'ILSVRC2015_val_00036004'
p355
(dp356
g36
(dp357
g6
I70
sssS'ILSVRC2015_val_00036005'
p358
(dp359
g36
(dp360
g6
I98
sssS'ILSVRC2015_val_00036008'
p361
(dp362
g36
(dp363
g6
I100
ssg38
(dp364
g6
I100
sssS'ILSVRC2015_val_00036009'
p365
(dp366
g38
(dp367
g6
I180
sssS'ILSVRC2015_val_00001000'
p368
(dp369
g9
(dp370
g6
I870
sssS'ILSVRC2015_val_00077000'
p371
(dp372
g154
(dp373
g6
I1311
sssS'ILSVRC2015_val_00014000'
p374
(dp375
S'bear'
p376
(dp377
g6
I1169
sssS'ILSVRC2015_val_00097000'
p378
(dp379
g107
(dp380
g6
I845
sssS'ILSVRC2015_val_00096000'
p381
(dp382
g150
(dp383
g6
I102
ssg107
(dp384
g6
I187
sssS'ILSVRC2015_val_00080003'
p385
(dp386
g376
(dp387
g6
I470
sssS'ILSVRC2015_val_00080002'
p388
(dp389
g376
(dp390
g6
I330
sssS'ILSVRC2015_val_00080001'
p391
(dp392
g376
(dp393
g6
I470
sssS'ILSVRC2015_val_00080000'
p394
(dp395
g376
(dp396
g6
I780
sssS'ILSVRC2015_val_00042009'
p397
(dp398
S'motorcycle'
p399
(dp400
g6
I40
sssS'ILSVRC2015_val_00042008'
p401
(dp402
g158
(dp403
g6
I21
sssS'ILSVRC2015_val_00042005'
p404
(dp405
g399
(dp406
g6
I60
sssS'ILSVRC2015_val_00032002'
p407
(dp408
S'fox'
p409
(dp410
g6
I1327
sssS'ILSVRC2015_val_00042007'
p411
(dp412
g399
(dp413
g6
I80
sssS'ILSVRC2015_val_00042006'
p414
(dp415
g399
(dp416
g6
I17
sssS'ILSVRC2015_val_00042001'
p417
(dp418
g399
(dp419
g6
I24
sssS'ILSVRC2015_val_00042000'
p420
(dp421
g399
(dp422
g6
I29
sssS'ILSVRC2015_val_00042003'
p423
(dp424
g399
(dp425
g6
I37
sssS'ILSVRC2015_val_00032003'
p426
(dp427
g409
(dp428
g6
I1380
sssS'ILSVRC2015_val_00020005'
p429
(dp430
g38
(dp431
g6
I80
sssS'ILSVRC2015_val_00020004'
p432
(dp433
g38
(dp434
g6
I93
sssS'ILSVRC2015_val_00020007'
p435
(dp436
g38
(dp437
g6
I70
sssS'ILSVRC2015_val_00020006'
p438
(dp439
g38
(dp440
g6
I156
sssS'ILSVRC2015_val_00020001'
p441
(dp442
g38
(dp443
g6
I115
sssS'ILSVRC2015_val_00020000'
p444
(dp445
g38
(dp446
g6
I117
sssS'ILSVRC2015_val_00020003'
p447
(dp448
g38
(dp449
g6
I141
sssS'ILSVRC2015_val_00020002'
p450
(dp451
g38
(dp452
g6
I118
sssS'ILSVRC2015_val_00020009'
p453
(dp454
g38
(dp455
g6
I82
sssS'ILSVRC2015_val_00020008'
p456
(dp457
g38
(dp458
g6
I139
sssS'ILSVRC2015_val_00177000'
p459
(dp460
g267
(dp461
g6
I82
sssS'ILSVRC2015_val_00177001'
p462
(dp463
g267
(dp464
g6
I145
sssS'ILSVRC2015_val_00143004'
p465
(dp466
g209
(dp467
g6
I100
sssS'ILSVRC2015_val_00143001'
p468
(dp469
g209
(dp470
g6
I400
sssS'ILSVRC2015_val_00143000'
p471
(dp472
g209
(dp473
g6
I170
sssS'ILSVRC2015_val_00143003'
p474
(dp475
g209
(dp476
g6
I200
sssS'ILSVRC2015_val_00143002'
p477
(dp478
g209
(dp479
g6
I220
sssS'ILSVRC2015_val_00155000'
p480
(dp481
g46
(dp482
g6
I118
sssS'ILSVRC2015_val_00119000'
p483
(dp484
g199
(dp485
g6
I1086
sssS'ILSVRC2015_val_00062000'
p486
(dp487
g154
(dp488
g6
I263
sssS'ILSVRC2015_val_00086000'
p489
(dp490
g36
(dp491
g6
I116
sssS'ILSVRC2015_val_00069004'
p492
(dp493
S'cattle'
p494
(dp495
g6
I583
sssS'ILSVRC2015_val_00069005'
p496
(dp497
g494
(dp498
g6
I600
sssS'ILSVRC2015_val_00069002'
p499
(dp500
g494
(dp501
g6
I447
sssS'ILSVRC2015_val_00069003'
p502
(dp503
g494
(dp504
g6
I1120
sssS'ILSVRC2015_val_00069000'
p505
(dp506
g494
(dp507
g6
I1200
sssS'ILSVRC2015_val_00069001'
p508
(dp509
g494
(dp510
g6
I640
sssS'ILSVRC2015_val_00016000'
p511
(dp512
g23
(dp513
g6
I164
sssS'ILSVRC2015_val_00016001'
p514
(dp515
g23
(dp516
g6
I257
sssS'ILSVRC2015_val_00016002'
p517
(dp518
g23
(dp519
g6
I331
sssS'ILSVRC2015_val_00016003'
p520
(dp521
g23
(dp522
g6
I189
sssS'ILSVRC2015_val_00016004'
p523
(dp524
g23
(dp525
g6
I96
sssS'ILSVRC2015_val_00016005'
p526
(dp527
g23
(dp528
g6
I72
sssS'ILSVRC2015_val_00016006'
p529
(dp530
g23
(dp531
g6
I302
sssS'ILSVRC2015_val_00016007'
p532
(dp533
g23
(dp534
g6
I530
sssS'ILSVRC2015_val_00016008'
p535
(dp536
g23
(dp537
g6
I347
sssS'ILSVRC2015_val_00016009'
p538
(dp539
g23
(dp540
g6
I613
sssS'ILSVRC2015_val_00165003'
p541
(dp542
g267
(dp543
g6
I783
sssS'ILSVRC2015_val_00165002'
p544
(dp545
g267
(dp546
g6
I783
sssS'ILSVRC2015_val_00149003'
p547
(dp548
S'tiger'
p549
(dp550
g6
I350
sssS'ILSVRC2015_val_00149002'
p551
(dp552
g549
(dp553
g6
I350
sssS'ILSVRC2015_val_00149001'
p554
(dp555
g549
(dp556
g6
I350
sssS'ILSVRC2015_val_00149000'
p557
(dp558
g549
(dp559
g6
I350
sssS'ILSVRC2015_val_00022000'
p560
(dp561
g23
(dp562
g6
I750
ssg267
(dp563
g6
I434
sssS'ILSVRC2015_val_00045000'
p564
(dp565
g4
(dp566
g6
I1305
sssS'ILSVRC2015_val_00045001'
p567
(dp568
g4
(dp569
g6
I746
sssS'ILSVRC2015_val_00115000'
p570
(dp571
g4
(dp572
g6
I504
sssS'ILSVRC2015_val_00044021'
p573
(dp574
g46
(dp575
g6
I86
sssS'ILSVRC2015_val_00044020'
p576
(dp577
g46
(dp578
g6
I333
sssS'ILSVRC2015_val_00044023'
p579
(dp580
g46
(dp581
g6
I301
sssS'ILSVRC2015_val_00041010'
p582
(dp583
g13
(dp584
g6
I339
sssS'ILSVRC2015_val_00044025'
p585
(dp586
g46
(dp587
g6
I119
sssS'ILSVRC2015_val_00044024'
p588
(dp589
g46
(dp590
g6
I286
sssS'ILSVRC2015_val_00033001'
p591
(dp592
g53
(dp593
g6
I430
sssS'ILSVRC2015_val_00033000'
p594
(dp595
g53
(dp596
g6
I181
sssS'ILSVRC2015_val_00033002'
p597
(dp598
g53
(dp599
g6
I610
sssS'ILSVRC2015_val_00139001'
p600
(dp601
g189
(dp602
g6
I111
sssS'ILSVRC2015_val_00120000'
p603
(dp604
g150
(dp605
g6
I464
sssS'ILSVRC2015_val_00007019'
p606
(dp607
g158
(dp608
g6
I1170
sssS'ILSVRC2015_val_00007018'
p609
(dp610
g158
(dp611
g6
I217
sssS'ILSVRC2015_val_00003000'
p612
(dp613
g549
(dp614
g6
I137
sssS'ILSVRC2015_val_00003001'
p615
(dp616
g46
(dp617
g6
I167
sssS'ILSVRC2015_val_00007015'
p618
(dp619
g158
(dp620
g6
I137
sssS'ILSVRC2015_val_00007014'
p621
(dp622
g158
(dp623
g6
I173
sssS'ILSVRC2015_val_00007017'
p624
(dp625
g158
(dp626
g6
I304
sssS'ILSVRC2015_val_00007016'
p627
(dp628
g158
(dp629
g6
I1660
sssS'ILSVRC2015_val_00007011'
p630
(dp631
g158
(dp632
g6
I934
sssS'ILSVRC2015_val_00007010'
p633
(dp634
g158
(dp635
g6
I1008
sssS'ILSVRC2015_val_00007013'
p636
(dp637
g158
(dp638
g6
I136
sssS'ILSVRC2015_val_00057000'
p639
(dp640
g309
(dp641
g6
I181
sssS'ILSVRC2015_val_00039005'
p642
(dp643
g154
(dp644
g6
I355
sssS'ILSVRC2015_val_00039004'
p645
(dp646
g154
(dp647
g6
I329
sssS'ILSVRC2015_val_00039003'
p648
(dp649
g154
(dp650
g6
I270
sssS'ILSVRC2015_val_00039002'
p651
(dp652
g154
(dp653
g6
I345
sssS'ILSVRC2015_val_00039001'
p654
(dp655
g154
(dp656
g6
I238
sssS'ILSVRC2015_val_00039000'
p657
(dp658
g154
(dp659
g6
I328
sssS'ILSVRC2015_val_00011001'
p660
(dp661
g209
(dp662
g6
I232
sssS'ILSVRC2015_val_00011000'
p663
(dp664
g209
(dp665
g6
I92
sssS'ILSVRC2015_val_00011003'
p666
(dp667
g209
(dp668
g6
I110
sssS'ILSVRC2015_val_00011002'
p669
(dp670
g209
(dp671
g6
I102
sssS'ILSVRC2015_val_00011005'
p672
(dp673
g209
(dp674
g6
I107
sssS'ILSVRC2015_val_00011004'
p675
(dp676
g209
(dp677
g6
I137
sssS'ILSVRC2015_val_00011007'
p678
(dp679
g209
(dp680
g6
I200
sssS'ILSVRC2015_val_00011006'
p681
(dp682
g209
(dp683
g6
I100
sssS'ILSVRC2015_val_00011009'
p684
(dp685
g209
(dp686
g6
I222
sssS'ILSVRC2015_val_00011008'
p687
(dp688
g209
(dp689
g6
I114
sssS'ILSVRC2015_val_00105000'
p690
(dp691
g107
(dp692
g6
I435
sssS'ILSVRC2015_val_00171000'
p693
(dp694
g23
(dp695
g6
I435
sssS'ILSVRC2015_val_00168000'
p696
(dp697
g107
(dp698
g6
I170
sssS'ILSVRC2015_val_00008002'
p699
(dp700
g150
(dp701
g6
I220
sssS'ILSVRC2015_val_00008001'
p702
(dp703
g150
(dp704
g6
I1278
sssS'ILSVRC2015_val_00008000'
p705
(dp706
g150
(dp707
g6
I184
sssS'ILSVRC2015_val_00092000'
p708
(dp709
g46
(dp710
g6
I298
sssS'ILSVRC2015_val_00067000'
p711
(dp712
g399
(dp713
g6
I66
sssS'ILSVRC2015_val_00150001'
p714
(dp715
g267
(dp716
g6
I750
ssg46
(dp717
g6
I750
sssS'ILSVRC2015_val_00050000'
p718
(dp719
g154
(dp720
g6
I1410
sssS'ILSVRC2015_val_00119001'
p721
(dp722
g199
(dp723
g6
I366
sssS'ILSVRC2015_val_00150000'
p724
(dp725
g267
(dp726
g6
I754
sssS'ILSVRC2015_val_00027000'
p727
(dp728
g199
(dp729
g6
I2431
sssS'ILSVRC2015_val_00099001'
p730
(dp731
g154
(dp732
g6
I800
sssS'ILSVRC2015_val_00099000'
p733
(dp734
g154
(dp735
g6
I720
sssS'ILSVRC2015_val_00150003'
p736
(dp737
g267
(dp738
g6
I364
sssS'ILSVRC2015_val_00099002'
p739
(dp740
g154
(dp741
g6
I1440
sssS'ILSVRC2015_val_00137000'
p742
(dp743
g13
(dp744
g6
I210
sssS'ILSVRC2015_val_00163000'
p745
(dp746
g46
(dp747
g6
I419
sssS'ILSVRC2015_val_00159000'
p748
(dp749
g189
(dp750
g6
I1197
sssS'ILSVRC2015_val_00126000'
p751
(dp752
g107
(dp753
g6
I870
sssS'ILSVRC2015_val_00082001'
p754
(dp755
g154
(dp756
g6
I442
sssS'ILSVRC2015_val_00082000'
p757
(dp758
g209
(dp759
g6
I67
ssg154
(dp760
g6
I783
sssS'ILSVRC2015_val_00107000'
p761
(dp762
g209
(dp763
g6
I2167
sssS'ILSVRC2015_val_00094002'
p764
(dp765
S'zebra'
p766
(dp767
g6
I744
sssS'ILSVRC2015_val_00068001'
p768
(dp769
g46
(dp770
g6
I237
sssS'ILSVRC2015_val_00094000'
p771
(dp772
g766
(dp773
g6
I754
sssS'ILSVRC2015_val_00094001'
p774
(dp775
g766
(dp776
g6
I754
sssS'ILSVRC2015_val_00125000'
p777
(dp778
g189
(dp779
g6
I453
sssS'ILSVRC2015_val_00042004'
p780
(dp781
g399
(dp782
g6
I13
sssS'ILSVRC2015_val_00146002'
p783
(dp784
g46
(dp785
g6
I109
sssS'ILSVRC2015_val_00095001'
p786
(dp787
g409
(dp788
g6
I600
sssS'ILSVRC2015_val_00146001'
p789
(dp790
g46
(dp791
g6
I145
sssS'ILSVRC2015_val_00035003'
p792
(dp793
g494
(dp794
g6
I291
sssS'ILSVRC2015_val_00035002'
p795
(dp796
g494
(dp797
g6
I124
sssS'ILSVRC2015_val_00035001'
p798
(dp799
g494
(dp800
g6
I72
sssS'ILSVRC2015_val_00035000'
p801
(dp802
g494
(dp803
g6
I1411
sssS'ILSVRC2015_val_00035007'
p804
(dp805
g494
(dp806
g6
I213
sssS'ILSVRC2015_val_00035006'
p807
(dp808
g494
(dp809
g6
I1704
sssS'ILSVRC2015_val_00035005'
p810
(dp811
g494
(dp812
g6
I957
sssS'ILSVRC2015_val_00035004'
p813
(dp814
g494
(dp815
g6
I190
sssS'ILSVRC2015_val_00151000'
p816
(dp817
g154
(dp818
g6
I82
sssS'ILSVRC2015_val_00035009'
p819
(dp820
g494
(dp821
g6
I256
sssS'ILSVRC2015_val_00042002'
p822
(dp823
g399
(dp824
g6
I78
sssS'ILSVRC2015_val_00095000'
p825
(dp826
g409
(dp827
g6
I600
sssS'ILSVRC2015_val_00088000'
p828
(dp829
g267
(dp830
g6
I870
sssS'ILSVRC2015_val_00139000'
p831
(dp832
g189
(dp833
g6
I57
sssS'ILSVRC2015_val_00074000'
p834
(dp835
g154
(dp836
g6
I410
sssS'ILSVRC2015_val_00047000'
p837
(dp838
g209
(dp839
g6
I440
ssg189
(dp840
g6
I2833
sssS'ILSVRC2015_val_00128001'
p841
(dp842
g53
(dp843
g6
I493
sssS'ILSVRC2015_val_00073000'
p844
(dp845
g209
(dp846
g6
I507
ssg376
(dp847
g6
I200
sssS'ILSVRC2015_val_00083000'
p848
(dp849
g549
(dp850
g6
I609
sssS'ILSVRC2015_val_00135000'
p851
(dp852
g100
(dp853
g6
I112
sssS'ILSVRC2015_val_00135001'
p854
(dp855
g100
(dp856
g6
I909
sssS'ILSVRC2015_val_00135002'
p857
(dp858
g100
(dp859
g6
I545
sssS'ILSVRC2015_val_00111000'
p860
(dp861
g107
(dp862
g6
I45
sssS'ILSVRC2015_val_00065000'
p863
(dp864
g46
(dp865
g6
I116
sssS'ILSVRC2015_val_00144000'
p866
(dp867
g209
(dp868
g6
I227
sssS'ILSVRC2015_val_00048008'
p869
(dp870
g107
(dp871
g6
I53
sssS'ILSVRC2015_val_00048003'
p872
(dp873
g107
(dp874
g6
I222
sssS'ILSVRC2015_val_00048002'
p875
(dp876
g209
(dp877
g6
I320
ssg107
(dp878
g6
I1226
sssS'ILSVRC2015_val_00048001'
p879
(dp880
g107
(dp881
g6
I252
sssS'ILSVRC2015_val_00048000'
p882
(dp883
g107
(dp884
g6
I346
sssS'ILSVRC2015_val_00048007'
p885
(dp886
g107
(dp887
g6
I925
sssS'ILSVRC2015_val_00048006'
p888
(dp889
g107
(dp890
g6
I71
sssS'ILSVRC2015_val_00048005'
p891
(dp892
g107
(dp893
g6
I86
sssS'ILSVRC2015_val_00048004'
p894
(dp895
g107
(dp896
g6
I830
sssS'ILSVRC2015_val_00007044'
p897
(dp898
g158
(dp899
g6
I290
sssS'ILSVRC2015_val_00007045'
p900
(dp901
g158
(dp902
g6
I92
sssS'ILSVRC2015_val_00007042'
p903
(dp904
g158
(dp905
g6
I852
sssS'ILSVRC2015_val_00007043'
p906
(dp907
g158
(dp908
g6
I1199
sssS'ILSVRC2015_val_00007040'
p909
(dp910
g158
(dp911
g6
I700
sssS'ILSVRC2015_val_00007041'
p912
(dp913
g158
(dp914
g6
I707
sssS'ILSVRC2015_val_00129000'
p915
(dp916
g376
(dp917
g6
I605
sssS'ILSVRC2015_val_00055000'
p918
(dp919
g46
(dp920
g6
I435
sssS'ILSVRC2015_val_00042018'
p921
(dp922
g399
(dp923
g6
I29
sssS'ILSVRC2015_val_00042019'
p924
(dp925
g399
(dp926
g6
I11
sssS'ILSVRC2015_val_00042012'
p927
(dp928
g399
(dp929
g6
I20
sssS'ILSVRC2015_val_00042013'
p930
(dp931
g399
(dp932
g6
I28
sssS'ILSVRC2015_val_00042010'
p933
(dp934
g399
(dp935
g6
I26
sssS'ILSVRC2015_val_00042011'
p936
(dp937
g399
(dp938
g6
I20
sssS'ILSVRC2015_val_00042016'
p939
(dp940
g399
(dp941
g6
I27
sssS'ILSVRC2015_val_00042017'
p942
(dp943
g399
(dp944
g6
I27
sssS'ILSVRC2015_val_00042014'
p945
(dp946
g209
(dp947
g6
I38
sssS'ILSVRC2015_val_00042015'
p948
(dp949
g209
(dp950
g6
I25
ssg399
(dp951
g6
I25
sssS'ILSVRC2015_val_00020010'
p952
(dp953
g38
(dp954
g6
I117
sssS'ILSVRC2015_val_00020011'
p955
(dp956
g38
(dp957
g6
I34
sssS'ILSVRC2015_val_00066000'
p958
(dp959
g46
(dp960
g6
I900
sssS'ILSVRC2015_val_00025000'
p961
(dp962
g23
(dp963
g6
I170
ssg267
(dp964
g6
I27
sssS'ILSVRC2015_val_00025001'
p965
(dp966
g23
(dp967
g6
I790
ssg267
(dp968
g6
I741
sssS'ILSVRC2015_val_00156000'
p969
(dp970
g4
(dp971
g6
I125
sssS'ILSVRC2015_val_00174000'
p972
(dp973
g46
(dp974
g6
I168
sssS'ILSVRC2015_val_00116000'
p975
(dp976
g23
(dp977
g6
I300
sssS'ILSVRC2015_val_00132000'
p978
(dp979
g46
(dp980
g6
I360
sssS'ILSVRC2015_val_00165000'
p981
(dp982
g267
(dp983
g6
I783
sssS'ILSVRC2015_val_00131001'
p984
(dp985
S'hamster'
p986
(dp987
g6
I445
sssS'ILSVRC2015_val_00000005'
p988
(dp989
g150
(dp990
g6
I430
sssS'ILSVRC2015_val_00000004'
p991
(dp992
g150
(dp993
g6
I725
sssS'ILSVRC2015_val_00000003'
p994
(dp995
g150
(dp996
g6
I538
sssS'ILSVRC2015_val_00000002'
p997
(dp998
g150
(dp999
g6
I464
sssS'ILSVRC2015_val_00000001'
p1000
(dp1001
g150
(dp1002
g6
I420
sssS'ILSVRC2015_val_00000000'
p1003
(dp1004
g150
(dp1005
g6
I464
sssS'ILSVRC2015_val_00173002'
p1006
(dp1007
g36
(dp1008
g6
I341
sssS'ILSVRC2015_val_00173003'
p1009
(dp1010
g36
(dp1011
g6
I505
sssS'ILSVRC2015_val_00173000'
p1012
(dp1013
g36
(dp1014
g6
I701
sssS'ILSVRC2015_val_00173001'
p1015
(dp1016
g36
(dp1017
g6
I1140
sssS'ILSVRC2015_val_00173004'
p1018
(dp1019
g36
(dp1020
g6
I576
sssS'ILSVRC2015_val_00094003'
p1021
(dp1022
g766
(dp1023
g6
I749
sssS'ILSVRC2015_val_00131002'
p1024
(dp1025
g986
(dp1026
g6
I522
sssS'ILSVRC2015_val_00122000'
p1027
(dp1028
g209
(dp1029
g6
I870
sssS'ILSVRC2015_val_00041002'
p1030
(dp1031
g13
(dp1032
g6
I396
sssS'ILSVRC2015_val_00041008'
p1033
(dp1034
g13
(dp1035
g6
I918
sssS'ILSVRC2015_val_00041009'
p1036
(dp1037
g13
(dp1038
g6
I516
sssS'ILSVRC2015_val_00041000'
p1039
(dp1040
g13
(dp1041
g6
I186
sssS'ILSVRC2015_val_00041001'
p1042
(dp1043
g13
(dp1044
g6
I192
sssS'ILSVRC2015_val_00058000'
p1045
(dp1046
g46
(dp1047
g6
I290
sssS'ILSVRC2015_val_00041003'
p1048
(dp1049
g13
(dp1050
g6
I210
sssS'ILSVRC2015_val_00041004'
p1051
(dp1052
g13
(dp1053
g6
I1145
sssS'ILSVRC2015_val_00041005'
p1054
(dp1055
g13
(dp1056
g6
I468
sssS'ILSVRC2015_val_00041006'
p1057
(dp1058
g209
(dp1059
g6
I108
ssg13
(dp1060
g6
I1433
sssS'ILSVRC2015_val_00041007'
p1061
(dp1062
g13
(dp1063
g6
I282
sssS'ILSVRC2015_val_00023013'
p1064
(dp1065
g292
(dp1066
g6
I60
ssg399
(dp1067
g6
I42
ssg209
(dp1068
g6
I132
sssS'ILSVRC2015_val_00023012'
p1069
(dp1070
g292
(dp1071
g6
I119
ssg209
(dp1072
g6
I307
sssS'ILSVRC2015_val_00023011'
p1073
(dp1074
g292
(dp1075
g6
I115
ssg209
(dp1076
g6
I75
sssS'ILSVRC2015_val_00023010'
p1077
(dp1078
g209
(dp1079
g6
I792
ssg399
(dp1080
g6
I46
ssg292
(dp1081
g6
I365
sssS'ILSVRC2015_val_00029002'
p1082
(dp1083
g986
(dp1084
g6
I210
sssS'ILSVRC2015_val_00029000'
p1085
(dp1086
g986
(dp1087
g6
I210
sssS'ILSVRC2015_val_00029001'
p1088
(dp1089
g986
(dp1090
g6
I760
sssS'ILSVRC2015_val_00161001'
p1091
(dp1092
g376
(dp1093
g6
I630
sssS'ILSVRC2015_val_00161000'
p1094
(dp1095
g376
(dp1096
g6
I408
sssS'ILSVRC2015_val_00161002'
p1097
(dp1098
g209
(dp1099
g6
I1532
ssg376
(dp1100
g6
I809
sssS'ILSVRC2015_val_00060001'
p1101
(dp1102
g399
(dp1103
g6
I140
sssS'ILSVRC2015_val_00060000'
p1104
(dp1105
g399
(dp1106
g6
I80
sssS'ILSVRC2015_val_00063002'
p1107
(dp1108
g158
(dp1109
g6
I58
sssS'ILSVRC2015_val_00007008'
p1110
(dp1111
g158
(dp1112
g6
I99
sssS'ILSVRC2015_val_00007009'
p1113
(dp1114
g158
(dp1115
g6
I264
sssS'ILSVRC2015_val_00007002'
p1116
(dp1117
g158
(dp1118
g6
I94
sssS'ILSVRC2015_val_00007003'
p1119
(dp1120
g158
(dp1121
g6
I108
sssS'ILSVRC2015_val_00007000'
p1122
(dp1123
g158
(dp1124
g6
I198
sssS'ILSVRC2015_val_00007001'
p1125
(dp1126
g158
(dp1127
g6
I148
sssS'ILSVRC2015_val_00007006'
p1128
(dp1129
g158
(dp1130
g6
I243
sssS'ILSVRC2015_val_00007007'
p1131
(dp1132
g158
(dp1133
g6
I140
sssS'ILSVRC2015_val_00007004'
p1134
(dp1135
g158
(dp1136
g6
I122
sssS'ILSVRC2015_val_00007005'
p1137
(dp1138
g158
(dp1139
g6
I222
sssS'ILSVRC2015_val_00053002'
p1140
(dp1141
g209
(dp1142
g6
I130
sssS'ILSVRC2015_val_00053001'
p1143
(dp1144
g209
(dp1145
g6
I50
sssS'ILSVRC2015_val_00053000'
p1146
(dp1147
g209
(dp1148
g6
I90
sssS'ILSVRC2015_val_00085000'
p1149
(dp1150
g158
(dp1151
g6
I435
sssS'ILSVRC2015_val_00010002'
p1152
(dp1153
g766
(dp1154
g6
I303
sssS'ILSVRC2015_val_00009001'
p1155
(dp1156
g93
(dp1157
g6
I170
sssS'ILSVRC2015_val_00037008'
p1158
(dp1159
g409
(dp1160
g6
I1911
ssg23
(dp1161
g6
I1911
sssS'ILSVRC2015_val_00145000'
p1162
(dp1163
g9
(dp1164
g6
I433
sssS'ILSVRC2015_val_00037005'
p1165
(dp1166
g409
(dp1167
g6
I140
ssg23
(dp1168
g6
I140
sssS'ILSVRC2015_val_00037004'
p1169
(dp1170
g409
(dp1171
g6
I62
ssg23
(dp1172
g6
I69
sssS'ILSVRC2015_val_00037007'
p1173
(dp1174
g409
(dp1175
g6
I218
ssg23
(dp1176
g6
I243
sssS'ILSVRC2015_val_00037006'
p1177
(dp1178
g409
(dp1179
g6
I82
ssg23
(dp1180
g6
I50
sssS'ILSVRC2015_val_00037001'
p1181
(dp1182
g409
(dp1183
g6
I369
ssg23
(dp1184
g6
I369
sssS'ILSVRC2015_val_00037000'
p1185
(dp1186
g409
(dp1187
g6
I194
ssg23
(dp1188
g6
I7
sssS'ILSVRC2015_val_00037003'
p1189
(dp1190
g409
(dp1191
g6
I435
ssg23
(dp1192
g6
I455
sssS'ILSVRC2015_val_00037002'
p1193
(dp1194
g409
(dp1195
g6
I220
ssg23
(dp1196
g6
I216
sssS'ILSVRC2015_val_00015001'
p1197
(dp1198
g549
(dp1199
g6
I172
sssS'ILSVRC2015_val_00015000'
p1200
(dp1201
g549
(dp1202
g6
I72
sssS'ILSVRC2015_val_00015002'
p1203
(dp1204
g549
(dp1205
g6
I224
sssS'ILSVRC2015_val_00153000'
p1206
(dp1207
g292
(dp1208
g6
I584
sssS'ILSVRC2015_val_00153001'
p1209
(dp1210
g292
(dp1211
g6
I183
sssS'ILSVRC2015_val_00102000'
p1212
(dp1213
g209
(dp1214
g6
I49
ssg46
(dp1215
g6
I506
sssS'ILSVRC2015_val_00154001'
p1216
(dp1217
g309
(dp1218
g6
I375
sssS'ILSVRC2015_val_00154000'
p1219
(dp1220
g309
(dp1221
g6
I375
sssS'ILSVRC2015_val_00154003'
p1222
(dp1223
g309
(dp1224
g6
I375
sssS'ILSVRC2015_val_00154002'
p1225
(dp1226
g309
(dp1227
g6
I375
sssS'ILSVRC2015_val_00127000'
p1228
(dp1229
g100
(dp1230
g6
I120
sssS'ILSVRC2015_val_00113000'
p1231
(dp1232
g36
(dp1233
g6
I40
sssS'ILSVRC2015_val_00084000'
p1234
(dp1235
g46
(dp1236
g6
I112
sssS'ILSVRC2015_val_00018000'
p1237
(dp1238
g986
(dp1239
g6
I450
sssS'ILSVRC2015_val_00018001'
p1240
(dp1241
g986
(dp1242
g6
I450
sssS'ILSVRC2015_val_00166000'
p1243
(dp1244
g38
(dp1245
g6
I876
ssg100
(dp1246
g6
I657
sssS'ILSVRC2015_val_00127006'
p1247
(dp1248
g100
(dp1249
g6
I480
sssS'ILSVRC2015_val_00005000'
p1250
(dp1251
g766
(dp1252
g6
I415
sssS'ILSVRC2015_val_00005001'
p1253
(dp1254
g766
(dp1255
g6
I778
sssS'ILSVRC2015_val_00005002'
p1256
(dp1257
g766
(dp1258
g6
I302
sssS'ILSVRC2015_val_00005003'
p1259
(dp1260
g766
(dp1261
g6
I1160
sssS'ILSVRC2015_val_00176001'
p1262
(dp1263
g309
(dp1264
g6
I783
sssS'ILSVRC2015_val_00176000'
p1265
(dp1266
g309
(dp1267
g6
I783
sssS'ILSVRC2015_val_00176003'
p1268
(dp1269
g296
(dp1270
g6
I870
sssS'ILSVRC2015_val_00176002'
p1271
(dp1272
g309
(dp1273
g6
I870
sssS'ILSVRC2015_val_00035008'
p1274
(dp1275
g209
(dp1276
g6
I25
ssg494
(dp1277
g6
I416
sssS'ILSVRC2015_val_00017001'
p1278
(dp1279
g296
(dp1280
g6
I696
sssS'ILSVRC2015_val_00017000'
p1281
(dp1282
g296
(dp1283
g6
I696
sssS'ILSVRC2015_val_00030000'
p1284
(dp1285
S'giant_panda'
p1286
(dp1287
g6
I254
sssS'ILSVRC2015_val_00030001'
p1288
(dp1289
g1286
(dp1290
g6
I1372
sssS'ILSVRC2015_val_00030002'
p1291
(dp1292
g1286
(dp1293
g6
I1496
sssS'ILSVRC2015_val_00035010'
p1294
(dp1295
g494
(dp1296
g6
I148
sssS'ILSVRC2015_val_00035011'
p1297
(dp1298
g494
(dp1299
g6
I88
sssS'ILSVRC2015_val_00035012'
p1300
(dp1301
g494
(dp1302
g6
I133
sssS'ILSVRC2015_val_00035013'
p1303
(dp1304
g494
(dp1305
g6
I420
sssS'ILSVRC2015_val_00035014'
p1306
(dp1307
g494
(dp1308
g6
I141
sssS'ILSVRC2015_val_00035015'
p1309
(dp1310
g494
(dp1311
g6
I144
sssS'ILSVRC2015_val_00035016'
p1312
(dp1313
g494
(dp1314
g6
I67
sssS'ILSVRC2015_val_00114000'
p1315
(dp1316
g46
(dp1317
g6
I450
sssS'ILSVRC2015_val_00081000'
p1318
(dp1319
g189
(dp1320
g6
I1000
sssS'ILSVRC2015_val_00044009'
p1321
(dp1322
g46
(dp1323
g6
I765
sssS'ILSVRC2015_val_00044008'
p1324
(dp1325
g46
(dp1326
g6
I85
sssS'ILSVRC2015_val_00044007'
p1327
(dp1328
g46
(dp1329
g6
I65
sssS'ILSVRC2015_val_00044006'
p1330
(dp1331
g46
(dp1332
g6
I316
sssS'ILSVRC2015_val_00044005'
p1333
(dp1334
g46
(dp1335
g6
I319
sssS'ILSVRC2015_val_00044004'
p1336
(dp1337
g46
(dp1338
g6
I474
sssS'ILSVRC2015_val_00044003'
p1339
(dp1340
g46
(dp1341
g6
I386
sssS'ILSVRC2015_val_00044002'
p1342
(dp1343
g46
(dp1344
g6
I100
sssS'ILSVRC2015_val_00044001'
p1345
(dp1346
g46
(dp1347
g6
I294
sssS'ILSVRC2015_val_00044000'
p1348
(dp1349
g46
(dp1350
g6
I715
sssS'ILSVRC2015_val_00165001'
p1351
(dp1352
g267
(dp1353
g6
I783
sssS'ILSVRC2015_val_00026003'
p1354
(dp1355
g247
(dp1356
g6
I168
ssg53
(dp1357
g6
I150
sssS'ILSVRC2015_val_00026002'
p1358
(dp1359
g247
(dp1360
g6
I325
ssg53
(dp1361
g6
I168
sssS'ILSVRC2015_val_00026001'
p1362
(dp1363
g247
(dp1364
g6
I168
ssg53
(dp1365
g6
I168
sssS'ILSVRC2015_val_00026000'
p1366
(dp1367
g247
(dp1368
g6
I274
ssg53
(dp1369
g6
I168
sssS'ILSVRC2015_val_00140000'
p1370
(dp1371
g107
(dp1372
g6
I290
sssS'ILSVRC2015_val_00002000'
p1373
(dp1374
g309
(dp1375
g6
I278
sssS'ILSVRC2015_val_00108000'
p1376
(dp1377
g267
(dp1378
g6
I827
sssS'ILSVRC2015_val_00007033'
p1379
(dp1380
g158
(dp1381
g6
I300
sssS'ILSVRC2015_val_00007032'
p1382
(dp1383
g158
(dp1384
g6
I129
sssS'ILSVRC2015_val_00007031'
p1385
(dp1386
g158
(dp1387
g6
I195
sssS'ILSVRC2015_val_00007030'
p1388
(dp1389
g158
(dp1390
g6
I303
sssS'ILSVRC2015_val_00007037'
p1391
(dp1392
g158
(dp1393
g6
I2368
sssS'ILSVRC2015_val_00007036'
p1394
(dp1395
g158
(dp1396
g6
I571
sssS'ILSVRC2015_val_00007035'
p1397
(dp1398
g158
(dp1399
g6
I760
sssS'ILSVRC2015_val_00007034'
p1400
(dp1401
g158
(dp1402
g6
I263
sssS'ILSVRC2015_val_00104000'
p1403
(dp1404
g46
(dp1405
g6
I870
sssS'ILSVRC2015_val_00007039'
p1406
(dp1407
g158
(dp1408
g6
I1190
sssS'ILSVRC2015_val_00007038'
p1409
(dp1410
g158
(dp1411
g6
I1139
sssS'ILSVRC2015_val_00076002'
p1412
(dp1413
g1286
(dp1414
g6
I375
sssS'ILSVRC2015_val_00081001'
p1415
(dp1416
g189
(dp1417
g6
I994
sssS'ILSVRC2015_val_00076000'
p1418
(dp1419
g1286
(dp1420
g6
I727
sssS'ILSVRC2015_val_00076001'
p1421
(dp1422
g1286
(dp1423
g6
I102
sssS'ILSVRC2015_val_00043002'
p1424
(dp1425
g53
(dp1426
g6
I1049
sssS'ILSVRC2015_val_00043000'
p1427
(dp1428
g53
(dp1429
g6
I791
sssS'ILSVRC2015_val_00043001'
p1430
(dp1431
g53
(dp1432
g6
I747
sssS'ILSVRC2015_val_00012000'
p1433
(dp1434
g93
(dp1435
g6
I80
sssS'ILSVRC2015_val_00012001'
p1436
(dp1437
g93
(dp1438
g6
I155
sssS'ILSVRC2015_val_00012002'
p1439
(dp1440
g93
(dp1441
g6
I68
sssS'ILSVRC2015_val_00128000'
p1442
(dp1443
g53
(dp1444
g6
I493
sssS'ILSVRC2015_val_00021008'
p1445
(dp1446
g376
(dp1447
g6
I547
sssS'ILSVRC2015_val_00021009'
p1448
(dp1449
g376
(dp1450
g6
I191
sssS'ILSVRC2015_val_00021002'
p1451
(dp1452
g376
(dp1453
g6
I190
sssS'ILSVRC2015_val_00021003'
p1454
(dp1455
g376
(dp1456
g6
I368
sssS'ILSVRC2015_val_00021000'
p1457
(dp1458
g376
(dp1459
g6
I212
sssS'ILSVRC2015_val_00021001'
p1460
(dp1461
g376
(dp1462
g6
I666
sssS'ILSVRC2015_val_00021006'
p1463
(dp1464
g376
(dp1465
g6
I232
sssS'ILSVRC2015_val_00021007'
p1466
(dp1467
g376
(dp1468
g6
I464
sssS'ILSVRC2015_val_00021004'
p1469
(dp1470
g376
(dp1471
g6
I483
sssS'ILSVRC2015_val_00021005'
p1472
(dp1473
g376
(dp1474
g6
I556
sssS'ILSVRC2015_val_00170003'
p1475
(dp1476
g100
(dp1477
g6
I106
sssS'ILSVRC2015_val_00170002'
p1478
(dp1479
g100
(dp1480
g6
I167
sssS'ILSVRC2015_val_00170001'
p1481
(dp1482
g100
(dp1483
g6
I234
sssS'ILSVRC2015_val_00170000'
p1484
(dp1485
g100
(dp1486
g6
I110
sssS'ILSVRC2015_val_00148000'
p1487
(dp1488
g23
(dp1489
g6
I137
sssS'ILSVRC2015_val_00093000'
p1490
(dp1491
g46
(dp1492
g6
I280
sssS'ILSVRC2015_val_00118009'
p1493
(dp1494
g9
(dp1495
g6
I406
sssS'ILSVRC2015_val_00118008'
p1496
(dp1497
g9
(dp1498
g6
I812
sssS'ILSVRC2015_val_00118005'
p1499
(dp1500
g9
(dp1501
g6
I812
sssS'ILSVRC2015_val_00118004'
p1502
(dp1503
g9
(dp1504
g6
I620
sssS'ILSVRC2015_val_00118007'
p1505
(dp1506
g9
(dp1507
g6
I558
sssS'ILSVRC2015_val_00118006'
p1508
(dp1509
g9
(dp1510
g6
I533
sssS'ILSVRC2015_val_00051001'
p1511
(dp1512
g46
(dp1513
g6
I210
sssS'ILSVRC2015_val_00051000'
p1514
(dp1515
g46
(dp1516
g6
I497
sssS'ILSVRC2015_val_00118003'
p1517
(dp1518
g9
(dp1519
g6
I422
sssS'ILSVRC2015_val_00118002'
p1520
(dp1521
g209
(dp1522
g6
I229
ssg9
(dp1523
g6
I466
sssS'ILSVRC2015_val_00087000'
p1524
(dp1525
g154
(dp1526
g6
I1231
sssS'ILSVRC2015_val_00136000'
p1527
(dp1528
g107
(dp1529
g6
I617
sssS'ILSVRC2015_val_00164000'
p1530
(dp1531
g100
(dp1532
g6
I5515
sssS'ILSVRC2015_val_00169000'
p1533
(dp1534
g209
(dp1535
g6
I425
ssg154
(dp1536
g6
I893
sssS'ILSVRC2015_val_00142000'
p1537
(dp1538
g209
(dp1539
g6
I23
ssg13
(dp1540
g6
I297
sssS'ILSVRC2015_val_00075002'
p1541
(dp1542
g189
(dp1543
g6
I320
sssS'ILSVRC2015_val_00075001'
p1544
(dp1545
g189
(dp1546
g6
I168
sssS'ILSVRC2015_val_00075000'
p1547
(dp1548
g189
(dp1549
g6
I80
sssS'ILSVRC2015_val_00063000'
p1550
(dp1551
g158
(dp1552
g6
I78
sssS'ILSVRC2015_val_00063001'
p1553
(dp1554
g158
(dp1555
g6
I125
sssS'ILSVRC2015_val_00032000'
p1556
(dp1557
g409
(dp1558
g6
I103
sssS'ILSVRC2015_val_00032001'
p1559
(dp1560
g409
(dp1561
g6
I59
sssS'ILSVRC2015_val_00064000'
p1562
(dp1563
g9
(dp1564
g6
I821
sssS'ILSVRC2015_val_00151001'
p1565
(dp1566
g154
(dp1567
g6
I130
sssS'ILSVRC2015_val_00023000'
p1568
(dp1569
g292
(dp1570
g6
I164
ssg399
(dp1571
g6
I47
ssg209
(dp1572
g6
I552
sssS'ILSVRC2015_val_00023001'
p1573
(dp1574
g292
(dp1575
g6
I203
ssg399
(dp1576
g6
I41
sssS'ILSVRC2015_val_00023002'
p1577
(dp1578
g292
(dp1579
g6
I155
ssg209
(dp1580
g6
I1007
sssS'ILSVRC2015_val_00023003'
p1581
(dp1582
g292
(dp1583
g6
I477
ssg209
(dp1584
g6
I1551
sssS'ILSVRC2015_val_00023004'
p1585
(dp1586
g292
(dp1587
g6
I121
ssg399
(dp1588
g6
I45
ssg209
(dp1589
g6
I342
sssS'ILSVRC2015_val_00023005'
p1590
(dp1591
g209
(dp1592
g6
I2794
ssg292
(dp1593
g6
I449
sssS'ILSVRC2015_val_00023006'
p1594
(dp1595
g209
(dp1596
g6
I4342
ssg292
(dp1597
g6
I681
sssS'ILSVRC2015_val_00023007'
p1598
(dp1599
g209
(dp1600
g6
I3683
ssg292
(dp1601
g6
I721
sssS'ILSVRC2015_val_00023008'
p1602
(dp1603
g292
(dp1604
g6
I418
ssg209
(dp1605
g6
I550
sssS'ILSVRC2015_val_00023009'
p1606
(dp1607
g292
(dp1608
g6
I347
ssg399
(dp1609
g6
I41
ssg209
(dp1610
g6
I137
sssS'ILSVRC2015_val_00041013'
p1611
(dp1612
g13
(dp1613
g6
I434
sssS'ILSVRC2015_val_00041012'
p1614
(dp1615
g13
(dp1616
g6
I1160
sssS'ILSVRC2015_val_00134000'
p1617
(dp1618
g986
(dp1619
g6
I345
sssS'ILSVRC2015_val_00041011'
p1620
(dp1621
g13
(dp1622
g6
I288
sssS'ILSVRC2015_val_00044022'
p1623
(dp1624
g46
(dp1625
g6
I598
sssS'ILSVRC2015_val_00056000'
p1626
(dp1627
g46
(dp1628
g6
I435
sssS'ILSVRC2015_val_00056001'
p1629
(dp1630
g46
(dp1631
g6
I66
sssS'ILSVRC2015_val_00056002'
p1632
(dp1633
g46
(dp1634
g6
I435
sssS'ILSVRC2015_val_00046001'
p1635
(dp1636
g1286
(dp1637
g6
I436
sssS'ILSVRC2015_val_00046000'
p1638
(dp1639
g1286
(dp1640
g6
I789
sssS'ILSVRC2015_val_00046003'
p1641
(dp1642
g1286
(dp1643
g6
I581
sssS'ILSVRC2015_val_00046002'
p1644
(dp1645
g1286
(dp1646
g6
I1014
sssS'ILSVRC2015_val_00036010'
p1647
(dp1648
g36
(dp1649
g6
I140
sssS'ILSVRC2015_val_00146000'
p1650
(dp1651
g46
(dp1652
g6
I145
sssS'ILSVRC2015_val_00009000'
p1653
(dp1654
g93
(dp1655
g6
I175
sssS'ILSVRC2015_val_00010003'
p1656
(dp1657
g766
(dp1658
g6
I370
sssS'ILSVRC2015_val_00010000'
p1659
(dp1660
g766
(dp1661
g6
I237
sssS'ILSVRC2015_val_00010001'
p1662
(dp1663
g766
(dp1664
g6
I344
sssS'ILSVRC2015_val_00131000'
p1665
(dp1666
g986
(dp1667
g6
I522
sssS'ILSVRC2015_val_00101000'
p1668
(dp1669
g154
(dp1670
g6
I375
sssS'ILSVRC2015_val_00123004'
p1671
(dp1672
g296
(dp1673
g6
I108
ssg267
(dp1674
g6
I133
sssS'ILSVRC2015_val_00123003'
p1675
(dp1676
g267
(dp1677
g6
I496
ssg296
(dp1678
g6
I467
sssS'ILSVRC2015_val_00123002'
p1679
(dp1680
g296
(dp1681
g6
I423
ssg267
(dp1682
g6
I331
sssS'ILSVRC2015_val_00123001'
p1683
(dp1684
g267
(dp1685
g6
I780
ssg296
(dp1686
g6
I710
sssS'ILSVRC2015_val_00123000'
p1687
(dp1688
g296
(dp1689
g6
I705
ssg267
(dp1690
g6
I606
sssS'ILSVRC2015_val_00131003'
p1691
(dp1692
g986
(dp1693
g6
I522
sssS'ILSVRC2015_val_00024001'
p1694
(dp1695
g1286
(dp1696
g6
I105
sssS'ILSVRC2015_val_00024000'
p1697
(dp1698
g1286
(dp1699
g6
I135
sssS'ILSVRC2015_val_00024003'
p1700
(dp1701
g1286
(dp1702
g6
I93
sssS'ILSVRC2015_val_00024002'
p1703
(dp1704
g1286
(dp1705
g6
I114
sssS'ILSVRC2015_val_00162000'
p1706
(dp1707
g409
(dp1708
g6
I696
sssS'ILSVRC2015_val_00162001'
p1709
(dp1710
g409
(dp1711
g6
I696
sssS'ILSVRC2015_val_00127003'
p1712
(dp1713
g100
(dp1714
g6
I190
sssS'ILSVRC2015_val_00098000'
p1715
(dp1716
g46
(dp1717
g6
I437
sssS'ILSVRC2015_val_00127002'
p1718
(dp1719
g100
(dp1720
g6
I294
sssS'ILSVRC2015_val_00138000'
p1721
(dp1722
g107
(dp1723
g6
I375
sssS'ILSVRC2015_val_00127001'
p1724
(dp1725
g100
(dp1726
g6
I346
sssS'ILSVRC2015_val_00070000'
p1727
(dp1728
g46
(dp1729
g6
I216
sssS'ILSVRC2015_val_00106000'
p1730
(dp1731
g158
(dp1732
g6
I828
sssS'ILSVRC2015_val_00106001'
p1733
(dp1734
g158
(dp1735
g6
I690
sssS'ILSVRC2015_val_00038004'
p1736
(dp1737
g986
(dp1738
g6
I191
sssS'ILSVRC2015_val_00038005'
p1739
(dp1740
g986
(dp1741
g6
I236
sssS'ILSVRC2015_val_00038000'
p1742
(dp1743
g986
(dp1744
g6
I77
sssS'ILSVRC2015_val_00038001'
p1745
(dp1746
g986
(dp1747
g6
I206
sssS'ILSVRC2015_val_00038002'
p1748
(dp1749
g986
(dp1750
g6
I143
sssS'ILSVRC2015_val_00038003'
p1751
(dp1752
g986
(dp1753
g6
I187
sssS'ILSVRC2015_val_00147000'
p1754
(dp1755
g23
(dp1756
g6
I210
ssg46
(dp1757
g6
I57
sssS'ILSVRC2015_val_00127005'
p1758
(dp1759
g100
(dp1760
g6
I206
sssS'ILSVRC2015_val_00127004'
p1761
(dp1762
g100
(dp1763
g6
I165
sss.